target datalayout = "e-m:e-p270:32:32-p271:32:32-p272:64:64-i64:64-i128:128-f80:128-n8:16:32:64-S128"
target triple = "x86_64-pc-linux-gnu"

%struct.timespec = type { i64, i64 }
%struct.stat = type { i64, i64, i64, i32, i32, i32, i32, i64, i64, i64, i64, %struct.timespec, %struct.timespec, %struct.timespec, [3 x i64] }

@.str.37 = private unnamed_addr constant [44 x i8] c"power_save program %s not absolute pathname\00", align 1
@.str.38 = private unnamed_addr constant [37 x i8] c"power_save program %s not executable\00", align 1
@.str.39 = private unnamed_addr constant [32 x i8] c"power_save program %s not found\00", align 1
@.str.40 = private unnamed_addr constant [58 x i8] c"power_save program %s has group or world write permission\00", align 1

; Function Attrs: nounwind uwtable
define internal zeroext i1 @_valid_prog(ptr noundef %0) #0 {
  %2 = alloca i1, align 1
  %3 = alloca ptr, align 8
  %4 = alloca %struct.stat, align 8
  %5 = alloca i32, align 4
  store ptr %0, ptr %3, align 8
  call void @llvm.lifetime.start.p0(i64 144, ptr %4) #9
  %6 = load ptr, ptr %3, align 8
  %7 = getelementptr inbounds i8, ptr %6, i64 0
  %8 = load i8, ptr %7, align 1
  %9 = sext i8 %8 to i32
  %10 = icmp ne i32 %9, 47
  br i1 %10, label %11, label %14

11:                                               ; preds = %1
  %12 = load ptr, ptr %3, align 8
  %13 = call i32 (ptr, ...) @error(ptr noundef @.str.37, ptr noundef %12)
  store i1 false, ptr %2, align 1
  store i32 1, ptr %5, align 4
  br label %37

14:                                               ; preds = %1
  %15 = load ptr, ptr %3, align 8
  %16 = call i32 @access(ptr noundef %15, i32 noundef 1) #9
  %17 = icmp ne i32 %16, 0
  br i1 %17, label %18, label %21

18:                                               ; preds = %14
  %19 = load ptr, ptr %3, align 8
  %20 = call i32 (ptr, ...) @error(ptr noundef @.str.38, ptr noundef %19)
  store i1 false, ptr %2, align 1
  store i32 1, ptr %5, align 4
  br label %37

21:                                               ; preds = %14
  %22 = load ptr, ptr %3, align 8
  %23 = call i32 @stat(ptr noundef %22, ptr noundef %4) #9
  %24 = icmp ne i32 %23, 0
  br i1 %24, label %25, label %28

25:                                               ; preds = %21
  %26 = load ptr, ptr %3, align 8
  %27 = call i32 (ptr, ...) @error(ptr noundef @.str.39, ptr noundef %26)
  store i1 false, ptr %2, align 1
  store i32 1, ptr %5, align 4
  br label %37

28:                                               ; preds = %21
  %29 = getelementptr inbounds nuw %struct.stat, ptr %4, i32 0, i32 3
  %30 = load i32, ptr %29, align 8
  %31 = and i32 %30, 18
  %32 = icmp ne i32 %31, 0
  br i1 %32, label %33, label %36

33:                                               ; preds = %28
  %34 = load ptr, ptr %3, align 8
  %35 = call i32 (ptr, ...) @error(ptr noundef @.str.40, ptr noundef %34)
  store i1 false, ptr %2, align 1
  store i32 1, ptr %5, align 4
  br label %37

36:                                               ; preds = %28
  store i1 true, ptr %2, align 1
  store i32 1, ptr %5, align 4
  br label %37

37:                                               ; preds = %36, %33, %25, %18, %11
  call void @llvm.lifetime.end.p0(i64 144, ptr %4) #9
  %38 = load i1, ptr %2, align 1
  ret i1 %38
}