; Function Attrs: nounwind uwtable
define internal fastcc noundef zeroext i1 @_valid_prog(ptr noundef nonnull %0) unnamed_addr #0 {
  %2 = alloca %struct.stat, align 8
  call void @llvm.lifetime.start.p0(i64 144, ptr nonnull %2) #12
  %3 = load i8, ptr %0, align 1
  %.not = icmp eq i8 %3, 47
  br i1 %.not, label %4, label %.sink.split

4:                                                ; preds = %1
  %5 = tail call i32 @access(ptr noundef nonnull %0, i32 noundef 1) #12
  %.not8 = icmp eq i32 %5, 0
  br i1 %.not8, label %6, label %.sink.split

6:                                                ; preds = %4
  %7 = call i32 @stat(ptr noundef nonnull %0, ptr noundef nonnull %2) #12
  %.not9 = icmp eq i32 %7, 0
  br i1 %.not9, label %8, label %.sink.split

8:                                                ; preds = %6
  %9 = getelementptr inbounds nuw i8, ptr %2, i64 24
  %10 = load i32, ptr %9, align 8
  %11 = and i32 %10, 18
  %.not10 = icmp eq i32 %11, 0
  br i1 %.not10, label %13, label %.sink.split

.sink.split:                                      ; preds = %8, %6, %4, %1
  %.str.40.sink = phi ptr [ @.str.37, %1 ], [ @.str.38, %4 ], [ @.str.39, %6 ], [ @.str.40, %8 ]
  %12 = tail call i32 (ptr, ...) @error(ptr noundef nonnull %.str.40.sink, ptr noundef nonnull %0) #12
  br label %13

13:                                               ; preds = %.sink.split, %8
  %.0 = phi i1 [ true, %8 ], [ false, %.sink.split ]
  call void @llvm.lifetime.end.p0(i64 144, ptr nonnull %2) #12
  ret i1 %.0
}